target datalayout = "e-m:e-p270:32:32-p271:32:32-p272:64:64-i64:64-i128:128-f80:128-n8:16:32:64-S128"
target triple = "x86_64-pc-linux-gnu"

%struct.exr_attr_box2i_t = type { %struct.exr_attr_v2i_t, %struct.exr_attr_v2i_t }
%struct.exr_attr_v2i_t = type { i32, i32 }
%struct._priv_exr_part_t = type { i32, i32, %struct.exr_attribute_list, ptr, ptr, ptr, ptr, ptr, ptr, ptr, ptr, ptr, ptr, ptr, ptr, ptr, ptr, %struct.exr_attr_box2i_t, %struct.exr_attr_box2i_t, i32, i32, i32, float, i32, i32, ptr, ptr, ptr, ptr, i64, i16, i16, i32, i64, i64 }
%struct.exr_attribute_list = type { i32, i32, ptr, ptr }
%struct._priv_exr_context_t = type { i8, i8, i8, i8, i8, i8, i8, i8, %struct.exr_attr_string_t, %struct.exr_attr_string_t, ptr, ptr, ptr, ptr, ptr, ptr, ptr, ptr, i32, i32, i32, i32, i32, float, ptr, ptr, ptr, i64, ptr, ptr, i64, i32, i32, i32, i32, %struct._priv_exr_part_t, ptr, ptr, %struct.exr_attribute_list, %union.pthread_mutex_t, i8, i8, [2 x i8], i32 }
%struct.exr_attr_string_t = type { i32, i32, ptr }
%union.pthread_mutex_t = type { %struct.__pthread_mutex_s }
%struct.__pthread_mutex_s = type { i32, i32, i32, i32, i32, i16, i16, %struct.__pthread_internal_list }
%struct.__pthread_internal_list = type { ptr, ptr }
%struct._internal_exr_seq_scratch = type { ptr, i64, i64, i64, ptr, ptr, ptr }

@.str.14 = private unnamed_addr constant [38 x i8] c"End of file attempting to read header\00", align 1

; Function Attrs: nounwind uwtable
define internal i32 @scratch_seq_read(ptr noundef %0, ptr noundef %1, i64 noundef %2) #0 {
  %4 = alloca ptr, align 8
  %5 = alloca ptr, align 8
  %6 = alloca i64, align 8
  %7 = alloca ptr, align 8
  %8 = alloca i64, align 8
  %9 = alloca i64, align 8
  %10 = alloca i32, align 4
  %11 = alloca i64, align 8
  %12 = alloca i64, align 8
  %13 = alloca i64, align 8
  %14 = alloca i64, align 8
  %15 = alloca i64, align 8
  %16 = alloca i32, align 4
  %17 = alloca i64, align 8
  %18 = alloca i64, align 8
  store ptr %0, ptr %4, align 8, !tbaa !95
  store ptr %1, ptr %5, align 8, !tbaa !34
  store i64 %2, ptr %6, align 8, !tbaa !38
  call void @llvm.lifetime.start.p0(i64 8, ptr %7) #7
  %19 = load ptr, ptr %5, align 8, !tbaa !34
  store ptr %19, ptr %7, align 8, !tbaa !93
  call void @llvm.lifetime.start.p0(i64 8, ptr %8) #7
  store i64 0, ptr %8, align 8, !tbaa !38
  call void @llvm.lifetime.start.p0(i64 8, ptr %9) #7
  %20 = load i64, ptr %6, align 8, !tbaa !38
  store i64 %20, ptr %9, align 8, !tbaa !38
  call void @llvm.lifetime.start.p0(i64 4, ptr %10) #7
  store i32 -1, ptr %10, align 4, !tbaa !10
  br label %21

21:                                               ; preds = %179, %3
  %22 = load i64, ptr %9, align 8, !tbaa !38
  %23 = icmp ugt i64 %22, 0
  br i1 %23, label %24, label %180

24:                                               ; preds = %21
  %25 = load ptr, ptr %4, align 8, !tbaa !95
  %26 = getelementptr inbounds nuw %struct._internal_exr_seq_scratch, ptr %25, i32 0, i32 2
  %27 = load i64, ptr %26, align 8, !tbaa !98
  %28 = icmp sgt i64 %27, 0
  br i1 %28, label %29, label %68

29:                                               ; preds = %24
  call void @llvm.lifetime.start.p0(i64 8, ptr %11) #7
  %30 = load ptr, ptr %4, align 8, !tbaa !95
  %31 = getelementptr inbounds nuw %struct._internal_exr_seq_scratch, ptr %30, i32 0, i32 2
  %32 = load i64, ptr %31, align 8, !tbaa !98
  store i64 %32, ptr %11, align 8, !tbaa !38
  call void @llvm.lifetime.start.p0(i64 8, ptr %12) #7
  %33 = load i64, ptr %9, align 8, !tbaa !38
  store i64 %33, ptr %12, align 8, !tbaa !38
  %34 = load i64, ptr %12, align 8, !tbaa !38
  %35 = load i64, ptr %11, align 8, !tbaa !38
  %36 = icmp ugt i64 %34, %35
  br i1 %36, label %37, label %39

37:                                               ; preds = %29
  %38 = load i64, ptr %11, align 8, !tbaa !38
  store i64 %38, ptr %12, align 8, !tbaa !38
  br label %39

39:                                               ; preds = %37, %29
  %40 = load ptr, ptr %7, align 8, !tbaa !93
  %41 = load ptr, ptr %4, align 8, !tbaa !95
  %42 = getelementptr inbounds nuw %struct._internal_exr_seq_scratch, ptr %41, i32 0, i32 0
  %43 = load ptr, ptr %42, align 8, !tbaa !102
  %44 = load ptr, ptr %4, align 8, !tbaa !95
  %45 = getelementptr inbounds nuw %struct._internal_exr_seq_scratch, ptr %44, i32 0, i32 1
  %46 = load i64, ptr %45, align 8, !tbaa !97
  %47 = getelementptr inbounds nuw i8, ptr %43, i64 %46
  %48 = load i64, ptr %12, align 8, !tbaa !38
  call void @llvm.memcpy.p0.p0.i64(ptr align 1 %40, ptr align 1 %47, i64 %48, i1 false)
  %49 = load i64, ptr %12, align 8, !tbaa !38
  %50 = load ptr, ptr %4, align 8, !tbaa !95
  %51 = getelementptr inbounds nuw %struct._internal_exr_seq_scratch, ptr %50, i32 0, i32 1
  %52 = load i64, ptr %51, align 8, !tbaa !97
  %53 = add i64 %52, %49
  store i64 %53, ptr %51, align 8, !tbaa !97
  %54 = load i64, ptr %12, align 8, !tbaa !38
  %55 = load ptr, ptr %4, align 8, !tbaa !95
  %56 = getelementptr inbounds nuw %struct._internal_exr_seq_scratch, ptr %55, i32 0, i32 2
  %57 = load i64, ptr %56, align 8, !tbaa !98
  %58 = sub nsw i64 %57, %54
  store i64 %58, ptr %56, align 8, !tbaa !98
  %59 = load i64, ptr %12, align 8, !tbaa !38
  %60 = load i64, ptr %9, align 8, !tbaa !38
  %61 = sub i64 %60, %59
  store i64 %61, ptr %9, align 8, !tbaa !38
  %62 = load i64, ptr %12, align 8, !tbaa !38
  %63 = load ptr, ptr %7, align 8, !tbaa !93
  %64 = getelementptr inbounds nuw i8, ptr %63, i64 %62
  store ptr %64, ptr %7, align 8, !tbaa !93
  %65 = load i64, ptr %12, align 8, !tbaa !38
  %66 = load i64, ptr %8, align 8, !tbaa !38
  %67 = add i64 %66, %65
  store i64 %67, ptr %8, align 8, !tbaa !38
  call void @llvm.lifetime.end.p0(i64 8, ptr %12) #7
  call void @llvm.lifetime.end.p0(i64 8, ptr %11) #7
  br label %179

68:                                               ; preds = %24
  %69 = load i64, ptr %9, align 8, !tbaa !38
  %70 = icmp uge i64 %69, 4096
  br i1 %70, label %71, label %106

71:                                               ; preds = %68
  call void @llvm.lifetime.start.p0(i64 8, ptr %13) #7
  %72 = load i64, ptr %9, align 8, !tbaa !38
  %73 = udiv i64 %72, 4096
  store i64 %73, ptr %13, align 8, !tbaa !38
  call void @llvm.lifetime.start.p0(i64 8, ptr %14) #7
  store i64 0, ptr %14, align 8, !tbaa !38
  call void @llvm.lifetime.start.p0(i64 8, ptr %15) #7
  %74 = load i64, ptr %13, align 8, !tbaa !38
  %75 = mul i64 %74, 4096
  store i64 %75, ptr %15, align 8, !tbaa !38
  %76 = load ptr, ptr %4, align 8, !tbaa !95
  %77 = getelementptr inbounds nuw %struct._internal_exr_seq_scratch, ptr %76, i32 0, i32 6
  %78 = load ptr, ptr %77, align 8, !tbaa !101
  %79 = getelementptr inbounds nuw %struct._priv_exr_context_t, ptr %78, i32 0, i32 10
  %80 = load ptr, ptr %79, align 8, !tbaa !77
  %81 = load ptr, ptr %4, align 8, !tbaa !95
  %82 = getelementptr inbounds nuw %struct._internal_exr_seq_scratch, ptr %81, i32 0, i32 6
  %83 = load ptr, ptr %82, align 8, !tbaa !101
  %84 = load ptr, ptr %7, align 8, !tbaa !93
  %85 = load i64, ptr %15, align 8, !tbaa !38
  %86 = load ptr, ptr %4, align 8, !tbaa !95
  %87 = getelementptr inbounds nuw %struct._internal_exr_seq_scratch, ptr %86, i32 0, i32 3
  %88 = call i32 %80(ptr noundef %83, ptr noundef %84, i64 noundef %85, ptr noundef %87, ptr noundef %14, i32 noundef 0)
  store i32 %88, ptr %10, align 4, !tbaa !10
  %89 = load i64, ptr %14, align 8, !tbaa !38
  %90 = icmp sgt i64 %89, 0
  br i1 %90, label %91, label %101

91:                                               ; preds = %71
  %92 = load i64, ptr %14, align 8, !tbaa !38
  %93 = load i64, ptr %9, align 8, !tbaa !38
  %94 = sub i64 %93, %92
  store i64 %94, ptr %9, align 8, !tbaa !38
  %95 = load i64, ptr %14, align 8, !tbaa !38
  %96 = load ptr, ptr %7, align 8, !tbaa !93
  %97 = getelementptr inbounds i8, ptr %96, i64 %95
  store ptr %97, ptr %7, align 8, !tbaa !93
  %98 = load i64, ptr %14, align 8, !tbaa !38
  %99 = load i64, ptr %8, align 8, !tbaa !38
  %100 = add i64 %99, %98
  store i64 %100, ptr %8, align 8, !tbaa !38
  br label %102

101:                                              ; preds = %71
  store i32 3, ptr %16, align 4
  br label %103

102:                                              ; preds = %91
  store i32 0, ptr %16, align 4
  br label %103

103:                                              ; preds = %102, %101
  call void @llvm.lifetime.end.p0(i64 8, ptr %15) #7
  call void @llvm.lifetime.end.p0(i64 8, ptr %14) #7
  call void @llvm.lifetime.end.p0(i64 8, ptr %13) #7
  %104 = load i32, ptr %16, align 4
  switch i32 %104, label %192 [
    i32 0, label %105
    i32 3, label %180
  ]

105:                                              ; preds = %103
  br label %178

106:                                              ; preds = %68
  call void @llvm.lifetime.start.p0(i64 8, ptr %17) #7
  store i64 0, ptr %17, align 8, !tbaa !38
  call void @llvm.lifetime.start.p0(i64 8, ptr %18) #7
  store i64 4096, ptr %18, align 8, !tbaa !38
  %107 = load ptr, ptr %4, align 8, !tbaa !95
  %108 = getelementptr inbounds nuw %struct._internal_exr_seq_scratch, ptr %107, i32 0, i32 6
  %109 = load ptr, ptr %108, align 8, !tbaa !101
  %110 = getelementptr inbounds nuw %struct._priv_exr_context_t, ptr %109, i32 0, i32 27
  %111 = load i64, ptr %110, align 8, !tbaa !107
  %112 = icmp sgt i64 %111, 0
  br i1 %112, label %113, label %135

113:                                              ; preds = %106
  %114 = load ptr, ptr %4, align 8, !tbaa !95
  %115 = getelementptr inbounds nuw %struct._internal_exr_seq_scratch, ptr %114, i32 0, i32 3
  %116 = load i64, ptr %115, align 8, !tbaa !99
  %117 = add i64 %116, 4096
  %118 = load ptr, ptr %4, align 8, !tbaa !95
  %119 = getelementptr inbounds nuw %struct._internal_exr_seq_scratch, ptr %118, i32 0, i32 6
  %120 = load ptr, ptr %119, align 8, !tbaa !101
  %121 = getelementptr inbounds nuw %struct._priv_exr_context_t, ptr %120, i32 0, i32 27
  %122 = load i64, ptr %121, align 8, !tbaa !107
  %123 = icmp ugt i64 %117, %122
  br i1 %123, label %124, label %134

124:                                              ; preds = %113
  %125 = load ptr, ptr %4, align 8, !tbaa !95
  %126 = getelementptr inbounds nuw %struct._internal_exr_seq_scratch, ptr %125, i32 0, i32 6
  %127 = load ptr, ptr %126, align 8, !tbaa !101
  %128 = getelementptr inbounds nuw %struct._priv_exr_context_t, ptr %127, i32 0, i32 27
  %129 = load i64, ptr %128, align 8, !tbaa !107
  %130 = load ptr, ptr %4, align 8, !tbaa !95
  %131 = getelementptr inbounds nuw %struct._internal_exr_seq_scratch, ptr %130, i32 0, i32 3
  %132 = load i64, ptr %131, align 8, !tbaa !99
  %133 = sub i64 %129, %132
  store i64 %133, ptr %18, align 8, !tbaa !38
  br label %134

134:                                              ; preds = %124, %113
  br label %136

135:                                              ; preds = %106
  store i64 1, ptr %18, align 8, !tbaa !38
  br label %136

136:                                              ; preds = %135, %134
  %137 = load ptr, ptr %4, align 8, !tbaa !95
  %138 = getelementptr inbounds nuw %struct._internal_exr_seq_scratch, ptr %137, i32 0, i32 6
  %139 = load ptr, ptr %138, align 8, !tbaa !101
  %140 = getelementptr inbounds nuw %struct._priv_exr_context_t, ptr %139, i32 0, i32 10
  %141 = load ptr, ptr %140, align 8, !tbaa !77
  %142 = load ptr, ptr %4, align 8, !tbaa !95
  %143 = getelementptr inbounds nuw %struct._internal_exr_seq_scratch, ptr %142, i32 0, i32 6
  %144 = load ptr, ptr %143, align 8, !tbaa !101
  %145 = load ptr, ptr %4, align 8, !tbaa !95
  %146 = getelementptr inbounds nuw %struct._internal_exr_seq_scratch, ptr %145, i32 0, i32 0
  %147 = load ptr, ptr %146, align 8, !tbaa !102
  %148 = load i64, ptr %18, align 8, !tbaa !38
  %149 = load ptr, ptr %4, align 8, !tbaa !95
  %150 = getelementptr inbounds nuw %struct._internal_exr_seq_scratch, ptr %149, i32 0, i32 3
  %151 = call i32 %141(ptr noundef %144, ptr noundef %147, i64 noundef %148, ptr noundef %150, ptr noundef %17, i32 noundef 1)
  store i32 %151, ptr %10, align 4, !tbaa !10
  %152 = load i64, ptr %17, align 8, !tbaa !38
  %153 = icmp sgt i64 %152, 0
  br i1 %153, label %154, label %160

154:                                              ; preds = %136
  %155 = load i64, ptr %17, align 8, !tbaa !38
  %156 = load ptr, ptr %4, align 8, !tbaa !95
  %157 = getelementptr inbounds nuw %struct._internal_exr_seq_scratch, ptr %156, i32 0, i32 2
  store i64 %155, ptr %157, align 8, !tbaa !98
  %158 = load ptr, ptr %4, align 8, !tbaa !95
  %159 = getelementptr inbounds nuw %struct._internal_exr_seq_scratch, ptr %158, i32 0, i32 1
  store i64 0, ptr %159, align 8, !tbaa !97
  br label %174

160:                                              ; preds = %136
  %161 = load i64, ptr %17, align 8, !tbaa !38
  %162 = icmp eq i64 %161, 0
  br i1 %162, label %163, label %173

163:                                              ; preds = %160
  %164 = load ptr, ptr %4, align 8, !tbaa !95
  %165 = getelementptr inbounds nuw %struct._internal_exr_seq_scratch, ptr %164, i32 0, i32 6
  %166 = load ptr, ptr %165, align 8, !tbaa !101
  %167 = getelementptr inbounds nuw %struct._priv_exr_context_t, ptr %166, i32 0, i32 13
  %168 = load ptr, ptr %167, align 8, !tbaa !78
  %169 = load ptr, ptr %4, align 8, !tbaa !95
  %170 = getelementptr inbounds nuw %struct._internal_exr_seq_scratch, ptr %169, i32 0, i32 6
  %171 = load ptr, ptr %170, align 8, !tbaa !101
  %172 = call i32 %168(ptr noundef %171, i32 noundef 10, ptr noundef @.str.14)
  store i32 %172, ptr %10, align 4, !tbaa !10
  br label %173

173:                                              ; preds = %163, %160
  store i32 3, ptr %16, align 4
  br label %175

174:                                              ; preds = %154
  store i32 0, ptr %16, align 4
  br label %175

175:                                              ; preds = %174, %173
  call void @llvm.lifetime.end.p0(i64 8, ptr %18) #7
  call void @llvm.lifetime.end.p0(i64 8, ptr %17) #7
  %176 = load i32, ptr %16, align 4
  switch i32 %176, label %192 [
    i32 0, label %177
    i32 3, label %180
  ]

177:                                              ; preds = %175
  br label %178

178:                                              ; preds = %177, %105
  br label %179

179:                                              ; preds = %178, %39
  br label %21, !llvm.loop !108

180:                                              ; preds = %175, %103, %21
  %181 = load i32, ptr %10, align 4, !tbaa !10
  %182 = icmp eq i32 %181, -1
  br i1 %182, label %183, label %190

183:                                              ; preds = %180
  %184 = load i64, ptr %8, align 8, !tbaa !38
  %185 = load i64, ptr %6, align 8, !tbaa !38
  %186 = icmp eq i64 %184, %185
  br i1 %186, label %187, label %188

187:                                              ; preds = %183
  store i32 0, ptr %10, align 4, !tbaa !10
  br label %189

188:                                              ; preds = %183
  store i32 10, ptr %10, align 4, !tbaa !10
  br label %189

189:                                              ; preds = %188, %187
  br label %190

190:                                              ; preds = %189, %180
  %191 = load i32, ptr %10, align 4, !tbaa !10
  store i32 1, ptr %16, align 4
  call void @llvm.lifetime.end.p0(i64 4, ptr %10) #7
  call void @llvm.lifetime.end.p0(i64 8, ptr %9) #7
  call void @llvm.lifetime.end.p0(i64 8, ptr %8) #7
  call void @llvm.lifetime.end.p0(i64 8, ptr %7) #7
  ret i32 %191

192:                                              ; preds = %175, %103
  unreachable
}