; Function Attrs: nounwind uwtable
define internal range(i32 0, -1) i32 @scratch_seq_read(ptr noundef %0, ptr noundef %1, i64 noundef %2) #0 {
  %4 = alloca i64, align 8
  %5 = alloca i64, align 8
  %.not92 = icmp eq i64 %2, 0
  br i1 %.not92, label %.loopexit.thread, label %.lr.ph

.lr.ph:                                           ; preds = %3
  %6 = getelementptr inbounds nuw i8, ptr %0, i64 16
  %7 = getelementptr inbounds nuw i8, ptr %0, i64 48
  %8 = getelementptr inbounds nuw i8, ptr %0, i64 24
  %9 = getelementptr inbounds nuw i8, ptr %0, i64 8
  br label %10

10:                                               ; preds = %.lr.ph, %63
  %.05496 = phi ptr [ %1, %.lr.ph ], [ %.155, %63 ]
  %.05695 = phi i64 [ 0, %.lr.ph ], [ %.258, %63 ]
  %.06094 = phi i64 [ %2, %.lr.ph ], [ %.161, %63 ]
  %.06393 = phi i32 [ -1, %.lr.ph ], [ %.265, %63 ]
  %11 = load i64, ptr %6, align 8, !tbaa !94
  %12 = icmp sgt i64 %11, 0
  br i1 %12, label %13, label %24

13:                                               ; preds = %10
  %spec.select = call i64 @llvm.umin.i64(i64 %.06094, i64 %11)
  %14 = load ptr, ptr %0, align 8, !tbaa !76
  %15 = load i64, ptr %9, align 8, !tbaa !109
  %16 = getelementptr inbounds nuw i8, ptr %14, i64 %15
  call void @llvm.memcpy.p0.p0.i64(ptr align 1 %.05496, ptr align 1 %16, i64 %spec.select, i1 false)
  %17 = load i64, ptr %9, align 8, !tbaa !109
  %18 = add i64 %17, %spec.select
  store i64 %18, ptr %9, align 8, !tbaa !109
  %19 = load i64, ptr %6, align 8, !tbaa !94
  %20 = sub nsw i64 %19, %spec.select
  store i64 %20, ptr %6, align 8, !tbaa !94
  %21 = sub i64 %.06094, %spec.select
  %22 = getelementptr inbounds nuw i8, ptr %.05496, i64 %spec.select
  %23 = add i64 %spec.select, %.05695
  br label %63

24:                                               ; preds = %10
  %25 = icmp ugt i64 %.06094, 4095
  br i1 %25, label %26, label %38

26:                                               ; preds = %24
  %27 = and i64 %.06094, -4096
  call void @llvm.lifetime.start.p0(i64 8, ptr nonnull %4) #9
  store i64 0, ptr %4, align 8, !tbaa !64
  %28 = load ptr, ptr %7, align 8, !tbaa !75
  %29 = getelementptr inbounds nuw i8, ptr %28, i64 40
  %30 = load ptr, ptr %29, align 8, !tbaa !65
  %31 = call i32 %30(ptr noundef %28, ptr noundef %.05496, i64 noundef %27, ptr noundef nonnull %8, ptr noundef nonnull %4, i32 noundef 0) #9
  %32 = load i64, ptr %4, align 8, !tbaa !64
  %33 = icmp sgt i64 %32, 0
  br i1 %33, label %.thread, label %37

.thread:                                          ; preds = %26
  %34 = sub i64 %.06094, %32
  %35 = getelementptr inbounds nuw i8, ptr %.05496, i64 %32
  %36 = add i64 %32, %.05695
  call void @llvm.lifetime.end.p0(i64 8, ptr nonnull %4) #9
  br label %63

37:                                               ; preds = %26
  call void @llvm.lifetime.end.p0(i64 8, ptr nonnull %4) #9
  br label %.loopexit

38:                                               ; preds = %24
  call void @llvm.lifetime.start.p0(i64 8, ptr nonnull %5) #9
  store i64 0, ptr %5, align 8, !tbaa !64
  %39 = load ptr, ptr %7, align 8, !tbaa !75
  %40 = getelementptr inbounds nuw i8, ptr %39, i64 152
  %41 = load i64, ptr %40, align 8, !tbaa !93
  %42 = icmp sgt i64 %41, 0
  br i1 %42, label %43, label %48

43:                                               ; preds = %38
  %44 = load i64, ptr %8, align 8, !tbaa !70
  %45 = add i64 %44, 4096
  %46 = icmp ugt i64 %45, %41
  %47 = sub i64 %41, %44
  %spec.select72 = select i1 %46, i64 %47, i64 4096
  br label %48

48:                                               ; preds = %43, %38
  %.0 = phi i64 [ %spec.select72, %43 ], [ 1, %38 ]
  %49 = getelementptr inbounds nuw i8, ptr %39, i64 40
  %50 = load ptr, ptr %49, align 8, !tbaa !65
  %51 = load ptr, ptr %0, align 8, !tbaa !76
  %52 = call i32 %50(ptr noundef nonnull %39, ptr noundef %51, i64 noundef %.0, ptr noundef nonnull %8, ptr noundef nonnull %5, i32 noundef 1) #9
  %53 = load i64, ptr %5, align 8, !tbaa !64
  %54 = icmp sgt i64 %53, 0
  br i1 %54, label %62, label %55

55:                                               ; preds = %48
  %56 = icmp eq i64 %53, 0
  br i1 %56, label %57, label %.thread80

57:                                               ; preds = %55
  %58 = load ptr, ptr %7, align 8, !tbaa !75
  %59 = getelementptr inbounds nuw i8, ptr %58, i64 64
  %60 = load ptr, ptr %59, align 8, !tbaa !66
  %61 = call i32 %60(ptr noundef %58, i32 noundef 10, ptr noundef nonnull @.str.14) #9
  br label %.thread80

.thread80:                                        ; preds = %57, %55
  %.4.ph = phi i32 [ %52, %55 ], [ %61, %57 ]
  call void @llvm.lifetime.end.p0(i64 8, ptr nonnull %5) #9
  br label %.loopexit

62:                                               ; preds = %48
  store i64 %53, ptr %6, align 8, !tbaa !94
  store i64 0, ptr %9, align 8, !tbaa !109
  call void @llvm.lifetime.end.p0(i64 8, ptr nonnull %5) #9
  br label %63

63:                                               ; preds = %62, %.thread, %13
  %.265 = phi i32 [ %.06393, %13 ], [ %52, %62 ], [ %31, %.thread ]
  %.161 = phi i64 [ %21, %13 ], [ %.06094, %62 ], [ %34, %.thread ]
  %.258 = phi i64 [ %23, %13 ], [ %.05695, %62 ], [ %36, %.thread ]
  %.155 = phi ptr [ %22, %13 ], [ %.05496, %62 ], [ %35, %.thread ]
  %.not = icmp eq i64 %.161, 0
  br i1 %.not, label %.loopexit, label %10, !llvm.loop !110

.loopexit:                                        ; preds = %63, %.thread80, %37
  %.05688 = phi i64 [ %.05695, %37 ], [ %.05695, %.thread80 ], [ %.258, %63 ]
  %.164 = phi i32 [ %31, %37 ], [ %.4.ph, %.thread80 ], [ %.265, %63 ]
  %.164.fr = freeze i32 %.164
  %64 = icmp eq i32 %.164.fr, -1
  %65 = icmp eq i64 %.05688, %2
  %. = select i1 %65, i32 0, i32 10
  %spec.select111 = select i1 %64, i32 %., i32 %.164.fr
  br label %.loopexit.thread

.loopexit.thread:                                 ; preds = %.loopexit, %3
  %66 = phi i32 [ 0, %3 ], [ %spec.select111, %.loopexit ]
  ret i32 %66
}